Certificate:
    Data:
        Version: 3 (0x2)
        Serial Number: 355 (0x163)
        Signature Algorithm: sha1WithRSAEncryption
        Issuer: C=US, ST=NY, L=New York, O=Bloomberg LP, OU=CTO Office, CN=Bloomberg LP CA/emailAddress=open-tech@bloomberg.net
        Validity
            Not Before: Sep 18 06:00:00 2014 GMT
            Not After : Sep 24 06:00:00 2014 GMT
        Subject: C=US, ST=NY, L=New York, O=Bloomberg LP, OU=CTO Office, CN=hack_the_north_fall_2014_052/emailAddress=open-tech@bloomberg.net
        Subject Public Key Info:
            Public Key Algorithm: rsaEncryption
            RSA Public Key: (1024 bit)
                Modulus (1024 bit):
                    00:c2:d0:34:76:05:53:1e:1a:50:7c:82:17:d9:ca:
                    d8:2e:0e:0b:0c:89:6a:e2:92:31:de:c7:3e:5d:40:
                    cd:42:6c:72:37:1f:f9:6d:9d:ed:55:f0:7a:25:f7:
                    f8:b3:b4:8c:62:c6:f4:79:49:08:b7:87:f6:d1:69:
                    b1:04:47:71:e7:27:4c:7e:92:0c:09:af:5b:4f:65:
                    1c:94:1b:1a:66:98:38:4f:ab:60:de:4c:71:2a:27:
                    41:28:fe:64:3f:68:b0:a0:08:6c:9a:c8:7e:34:b1:
                    40:eb:ce:f7:4b:ea:da:42:12:c3:a3:cc:1b:dc:a1:
                    37:5d:ae:7e:4a:40:37:c5:f7
                Exponent: 65537 (0x10001)
        X509v3 extensions:
            X509v3 Basic Constraints: 
                CA:FALSE
            Netscape Comment: 
                Easy-RSA Generated Certificate
            X509v3 Subject Key Identifier: 
                CD:FB:A3:E9:43:42:89:07:39:E0:EC:19:63:EC:5D:3E:09:55:F3:86
            X509v3 Authority Key Identifier: 
                keyid:F3:21:76:1F:DA:B5:E7:03:FC:ED:D7:71:B8:1C:55:2D:7E:65:5F:14
                DirName:/C=US/ST=NY/L=New York/O=Bloomberg LP/OU=CTO Office/CN=Bloomberg LP CA/emailAddress=open-tech@bloomberg.net
                serial:81:F3:7A:1C:BC:C6:E8:A2

            X509v3 Extended Key Usage: 
                TLS Web Client Authentication
            X509v3 Key Usage: 
                Digital Signature
    Signature Algorithm: sha1WithRSAEncryption
        a7:82:ac:48:f5:f1:02:1f:38:e4:d3:be:eb:6e:b4:c3:55:86:
        87:d7:22:11:f0:12:84:76:cc:b8:9c:67:63:87:9b:00:14:d4:
        f0:b0:c4:e5:af:6a:95:f7:1c:4c:f1:6c:65:34:31:27:c3:f6:
        ae:a3:fc:f6:f4:65:fe:79:30:07:55:4d:d2:6f:6c:ba:36:d4:
        a9:fb:c8:1a:70:5c:7d:6d:dc:69:e5:91:5e:1c:bb:e5:de:78:
        7d:03:1d:62:41:36:d6:b7:28:bd:29:d2:f8:3e:36:ab:3a:f6:
        c8:c1:bb:9f:83:c5:ec:50:15:44:25:be:cb:df:80:98:40:e1:
        93:6d
-----BEGIN CERTIFICATE-----
MIIEEDCCA3mgAwIBAgICAWMwDQYJKoZIhvcNAQEFBQAwgZsxCzAJBgNVBAYTAlVT
MQswCQYDVQQIEwJOWTERMA8GA1UEBxMITmV3IFlvcmsxFTATBgNVBAoTDEJsb29t
YmVyZyBMUDETMBEGA1UECxMKQ1RPIE9mZmljZTEYMBYGA1UEAxMPQmxvb21iZXJn
IExQIENBMSYwJAYJKoZIhvcNAQkBFhdvcGVuLXRlY2hAYmxvb21iZXJnLm5ldDAe
Fw0xNDA5MTgwNjAwMDBaFw0xNDA5MjQwNjAwMDBaMIGoMQswCQYDVQQGEwJVUzEL
MAkGA1UECBMCTlkxETAPBgNVBAcTCE5ldyBZb3JrMRUwEwYDVQQKEwxCbG9vbWJl
cmcgTFAxEzARBgNVBAsTCkNUTyBPZmZpY2UxJTAjBgNVBAMUHGhhY2tfdGhlX25v
cnRoX2ZhbGxfMjAxNF8wNTIxJjAkBgkqhkiG9w0BCQEWF29wZW4tdGVjaEBibG9v
bWJlcmcubmV0MIGfMA0GCSqGSIb3DQEBAQUAA4GNADCBiQKBgQDC0DR2BVMeGlB8
ghfZytguDgsMiWrikjHexz5dQM1CbHI3H/ltne1V8Hol9/iztIxixvR5SQi3h/bR
abEER3HnJ0x+kgwJr1tPZRyUGxpmmDhPq2DeTHEqJ0Eo/mQ/aLCgCGyayH40sUDr
zvdL6tpCEsOjzBvcoTddrn5KQDfF9wIDAQABo4IBUjCCAU4wCQYDVR0TBAIwADAt
BglghkgBhvhCAQ0EIBYeRWFzeS1SU0EgR2VuZXJhdGVkIENlcnRpZmljYXRlMB0G
A1UdDgQWBBTN+6PpQ0KJBzng7Blj7F0+CVXzhjCB0AYDVR0jBIHIMIHFgBTzIXYf
2rXnA/zt13G4HFUtfmVfFKGBoaSBnjCBmzELMAkGA1UEBhMCVVMxCzAJBgNVBAgT
Ak5ZMREwDwYDVQQHEwhOZXcgWW9yazEVMBMGA1UEChMMQmxvb21iZXJnIExQMRMw
EQYDVQQLEwpDVE8gT2ZmaWNlMRgwFgYDVQQDEw9CbG9vbWJlcmcgTFAgQ0ExJjAk
BgkqhkiG9w0BCQEWF29wZW4tdGVjaEBibG9vbWJlcmcubmV0ggkAgfN6HLzG6KIw
EwYDVR0lBAwwCgYIKwYBBQUHAwIwCwYDVR0PBAQDAgeAMA0GCSqGSIb3DQEBBQUA
A4GBAKeCrEj18QIfOOTTvututMNVhofXIhHwEoR2zLicZ2OHmwAU1PCwxOWvapX3
HEzxbGU0MSfD9q6j/Pb0Zf55MAdVTdJvbLo21Kn7yBpwXH1t3GnlkV4cu+XeeH0D
HWJBNta3KL0p0vg+Nqs69sjBu5+DxexQFUQlvsvfgJhA4ZNt
-----END CERTIFICATE-----
